target datalayout = "e-m:e-p270:32:32-p271:32:32-p272:64:64-i64:64-i128:128-f80:128-n8:16:32:64-S128"
target triple = "x86_64-pc-linux-gnu"

%struct._fvalue_t = type { ptr, %union.anon.1 }
%union.anon.1 = type { %struct._protocol_value_t }
%struct._protocol_value_t = type { ptr, i32, ptr, i8 }

@.str.25 = private unnamed_addr constant [61 x i8] c"\22%s\22 contains too many bytes to be a valid Ethernet address.\00", align 1
@.str.26 = private unnamed_addr constant [60 x i8] c"\22%s\22 contains too few bytes to be a valid Ethernet address.\00", align 1
@.str.27 = private unnamed_addr constant [38 x i8] c"\22%s\22 is not a valid Ethernet address.\00", align 1

; Function Attrs: null_pointer_is_valid sspstrong uwtable
define internal void @bytes_fvalue_free(ptr noundef %0) #0 {
  %2 = alloca ptr, align 8
  store ptr %0, ptr %2, align 8
  %3 = load ptr, ptr %2, align 8
  %4 = getelementptr inbounds nuw %struct._fvalue_t, ptr %3, i32 0, i32 1
  %5 = load ptr, ptr %4, align 8
  %6 = icmp ne ptr %5, null
  br i1 %6, label %7, label %13

7:                                                ; preds = %1
  %8 = load ptr, ptr %2, align 8
  %9 = getelementptr inbounds nuw %struct._fvalue_t, ptr %8, i32 0, i32 1
  %10 = load ptr, ptr %9, align 8
  call void @g_bytes_unref(ptr noundef %10)
  %11 = load ptr, ptr %2, align 8
  %12 = getelementptr inbounds nuw %struct._fvalue_t, ptr %11, i32 0, i32 1
  store ptr null, ptr %12, align 8
  br label %13

13:                                               ; preds = %7, %1
  ret void
}

; Function Attrs: null_pointer_is_valid sspstrong uwtable
define internal zeroext i1 @bytes_from_literal(ptr noundef %0, ptr noundef %1, i1 noundef zeroext %2, ptr noundef %3) #0 {
  %5 = alloca i1, align 1
  %6 = alloca ptr, align 8
  %7 = alloca ptr, align 8
  %8 = alloca i8, align 1
  %9 = alloca ptr, align 8
  %10 = alloca ptr, align 8
  %11 = alloca i32, align 4
  store ptr %0, ptr %6, align 8
  store ptr %1, ptr %7, align 8
  %12 = zext i1 %2 to i8
  store i8 %12, ptr %8, align 1
  store ptr %3, ptr %9, align 8
  call void @llvm.lifetime.start.p0(i64 8, ptr %10) #9
  %13 = load ptr, ptr %7, align 8
  %14 = load ptr, ptr %9, align 8
  %15 = call ptr @byte_array_from_literal(ptr noundef %13, ptr noundef %14)
  store ptr %15, ptr %10, align 8
  %16 = load ptr, ptr %10, align 8
  %17 = icmp eq ptr %16, null
  br i1 %17, label %18, label %19

18:                                               ; preds = %4
  store i1 false, ptr %5, align 1
  store i32 1, ptr %11, align 4
  br label %25

19:                                               ; preds = %4
  %20 = load ptr, ptr %6, align 8
  call void @bytes_fvalue_free(ptr noundef %20)
  %21 = load ptr, ptr %10, align 8
  %22 = call ptr @g_byte_array_free_to_bytes(ptr noundef %21)
  %23 = load ptr, ptr %6, align 8
  %24 = getelementptr inbounds nuw %struct._fvalue_t, ptr %23, i32 0, i32 1
  store ptr %22, ptr %24, align 8
  store i1 true, ptr %5, align 1
  store i32 1, ptr %11, align 4
  br label %25

25:                                               ; preds = %19, %18
  call void @llvm.lifetime.end.p0(i64 8, ptr %10) #9
  %26 = load i1, ptr %5, align 1
  ret i1 %26
}

; Function Attrs: null_pointer_is_valid sspstrong uwtable
define internal zeroext i1 @ether_from_literal(ptr noundef %0, ptr noundef %1, i1 noundef zeroext %2, ptr noundef %3) #0 {
  %5 = alloca i1, align 1
  %6 = alloca ptr, align 8
  %7 = alloca ptr, align 8
  %8 = alloca i8, align 1
  %9 = alloca ptr, align 8
  store ptr %0, ptr %6, align 8
  store ptr %1, ptr %7, align 8
  %10 = zext i1 %2 to i8
  store i8 %10, ptr %8, align 1
  store ptr %3, ptr %9, align 8
  %11 = load ptr, ptr %6, align 8
  %12 = load ptr, ptr %7, align 8
  %13 = call zeroext i1 @bytes_from_literal(ptr noundef %11, ptr noundef %12, i1 noundef zeroext true, ptr noundef null)
  br i1 %13, label %14, label %47

14:                                               ; preds = %4
  %15 = load ptr, ptr %6, align 8
  %16 = getelementptr inbounds nuw %struct._fvalue_t, ptr %15, i32 0, i32 1
  %17 = load ptr, ptr %16, align 8
  %18 = call i64 @g_bytes_get_size(ptr noundef %17)
  %19 = icmp ugt i64 %18, 6
  br i1 %19, label %20, label %28

20:                                               ; preds = %14
  %21 = load ptr, ptr %9, align 8
  %22 = icmp ne ptr %21, null
  br i1 %22, label %23, label %27

23:                                               ; preds = %20
  %24 = load ptr, ptr %7, align 8
  %25 = call noalias ptr (ptr, ptr, ...) @wmem_strdup_printf(ptr noundef null, ptr noundef @.str.25, ptr noundef %24)
  %26 = load ptr, ptr %9, align 8
  store ptr %25, ptr %26, align 8
  br label %27

27:                                               ; preds = %23, %20
  store i1 false, ptr %5, align 1
  br label %55

28:                                               ; preds = %14
  %29 = load ptr, ptr %6, align 8
  %30 = getelementptr inbounds nuw %struct._fvalue_t, ptr %29, i32 0, i32 1
  %31 = load ptr, ptr %30, align 8
  %32 = call i64 @g_bytes_get_size(ptr noundef %31)
  %33 = icmp ult i64 %32, 6
  br i1 %33, label %34, label %45

34:                                               ; preds = %28
  %35 = load i8, ptr %8, align 1, !range !6, !noundef !7
  %36 = trunc i8 %35 to i1
  br i1 %36, label %45, label %37

37:                                               ; preds = %34
  %38 = load ptr, ptr %9, align 8
  %39 = icmp ne ptr %38, null
  br i1 %39, label %40, label %44

40:                                               ; preds = %37
  %41 = load ptr, ptr %7, align 8
  %42 = call noalias ptr (ptr, ptr, ...) @wmem_strdup_printf(ptr noundef null, ptr noundef @.str.26, ptr noundef %41)
  %43 = load ptr, ptr %9, align 8
  store ptr %42, ptr %43, align 8
  br label %44

44:                                               ; preds = %40, %37
  store i1 false, ptr %5, align 1
  br label %55

45:                                               ; preds = %34, %28
  br label %46

46:                                               ; preds = %45
  store i1 true, ptr %5, align 1
  br label %55

47:                                               ; preds = %4
  %48 = load ptr, ptr %9, align 8
  %49 = icmp ne ptr %48, null
  br i1 %49, label %50, label %54

50:                                               ; preds = %47
  %51 = load ptr, ptr %7, align 8
  %52 = call noalias ptr (ptr, ptr, ...) @wmem_strdup_printf(ptr noundef null, ptr noundef @.str.27, ptr noundef %51)
  %53 = load ptr, ptr %9, align 8
  store ptr %52, ptr %53, align 8
  br label %54

54:                                               ; preds = %50, %47
  store i1 false, ptr %5, align 1
  br label %55

55:                                               ; preds = %54, %46, %44, %27
  %56 = load i1, ptr %5, align 1
  ret i1 %56
}